target datalayout = "e-m:e-p270:32:32-p271:32:32-p272:64:64-i64:64-i128:128-f80:128-n8:16:32:64-S128"
target triple = "x86_64-pc-linux-gnu"

%struct.ident_t = type { i32, i32, i32, i32, ptr }

@1 = private unnamed_addr constant %struct.ident_t { i32 0, i32 514, i32 0, i32 22, ptr @0 }, align 8

; Function Attrs: mustprogress nounwind uwtable
define linkonce_odr noundef float @_ZNSt14numeric_limitsIfE6lowestEv() #0 comdat align 2 {
  ret float 0xC7EFFFFFE0000000
}

; Function Attrs: mustprogress nounwind uwtable
define linkonce_odr noundef zeroext i1 @_ZN5faiss4CMinIflE4cmp2Effll(float noundef %0, float noundef %1, i64 noundef %2, i64 noundef %3) #0 comdat align 2 {
  %5 = alloca float, align 4
  %6 = alloca float, align 4
  %7 = alloca i64, align 8
  %8 = alloca i64, align 8
  store float %0, ptr %5, align 4
  store float %1, ptr %6, align 4
  store i64 %2, ptr %7, align 8
  store i64 %3, ptr %8, align 8
  %9 = load float, ptr %5, align 4
  %10 = load float, ptr %6, align 4
  %11 = fcmp olt float %9, %10
  br i1 %11, label %22, label %12

12:                                               ; preds = %4
  %13 = load float, ptr %5, align 4
  %14 = load float, ptr %6, align 4
  %15 = fcmp oeq float %13, %14
  br i1 %15, label %16, label %20

16:                                               ; preds = %12
  %17 = load i64, ptr %7, align 8
  %18 = load i64, ptr %8, align 8
  %19 = icmp slt i64 %17, %18
  br label %20

20:                                               ; preds = %16, %12
  %21 = phi i1 [ false, %12 ], [ %19, %16 ]
  br label %22

22:                                               ; preds = %20, %4
  %23 = phi i1 [ true, %4 ], [ %21, %20 ]
  ret i1 %23
}

; Function Attrs: mustprogress nounwind uwtable
define linkonce_odr noundef float @_ZN5faiss4CMinIflE7neutralEv() #0 comdat align 2 {
  %1 = call noundef float @_ZNSt14numeric_limitsIfE6lowestEv() #9
  ret float %1
}

; Function Attrs: mustprogress uwtable
define linkonce_odr void @_ZN5faiss9heap_pushINS_4CMinIflEEEEvmPNT_1TEPNS3_2TIES4_S6_(i64 noundef %0, ptr noundef %1, ptr noundef %2, float noundef %3, i64 noundef %4) #1 comdat {
  %6 = alloca i64, align 8
  %7 = alloca ptr, align 8
  %8 = alloca ptr, align 8
  %9 = alloca float, align 4
  %10 = alloca i64, align 8
  %11 = alloca i64, align 8
  %12 = alloca i64, align 8
  store i64 %0, ptr %6, align 8
  store ptr %1, ptr %7, align 8
  store ptr %2, ptr %8, align 8
  store float %3, ptr %9, align 4
  store i64 %4, ptr %10, align 8
  %13 = load ptr, ptr %7, align 8
  %14 = getelementptr inbounds float, ptr %13, i32 -1
  store ptr %14, ptr %7, align 8
  %15 = load ptr, ptr %8, align 8
  %16 = getelementptr inbounds i64, ptr %15, i32 -1
  store ptr %16, ptr %8, align 8
  %17 = load i64, ptr %6, align 8
  store i64 %17, ptr %11, align 8
  br label %18

18:                                               ; preds = %36, %5
  %19 = load i64, ptr %11, align 8
  %20 = icmp ugt i64 %19, 1
  br i1 %20, label %21, label %52

21:                                               ; preds = %18
  %22 = load i64, ptr %11, align 8
  %23 = lshr i64 %22, 1
  store i64 %23, ptr %12, align 8
  %24 = load float, ptr %9, align 4
  %25 = load ptr, ptr %7, align 8
  %26 = load i64, ptr %12, align 8
  %27 = getelementptr inbounds float, ptr %25, i64 %26
  %28 = load float, ptr %27, align 4
  %29 = load i64, ptr %10, align 8
  %30 = load ptr, ptr %8, align 8
  %31 = load i64, ptr %12, align 8
  %32 = getelementptr inbounds i64, ptr %30, i64 %31
  %33 = load i64, ptr %32, align 8
  %34 = call noundef zeroext i1 @_ZN5faiss4CMinIflE4cmp2Effll(float noundef %24, float noundef %28, i64 noundef %29, i64 noundef %33)
  br i1 %34, label %36, label %35

35:                                               ; preds = %21
  br label %52

36:                                               ; preds = %21
  %37 = load ptr, ptr %7, align 8
  %38 = load i64, ptr %12, align 8
  %39 = getelementptr inbounds float, ptr %37, i64 %38
  %40 = load float, ptr %39, align 4
  %41 = load ptr, ptr %7, align 8
  %42 = load i64, ptr %11, align 8
  %43 = getelementptr inbounds float, ptr %41, i64 %42
  store float %40, ptr %43, align 4
  %44 = load ptr, ptr %8, align 8
  %45 = load i64, ptr %12, align 8
  %46 = getelementptr inbounds i64, ptr %44, i64 %45
  %47 = load i64, ptr %46, align 8
  %48 = load ptr, ptr %8, align 8
  %49 = load i64, ptr %11, align 8
  %50 = getelementptr inbounds i64, ptr %48, i64 %49
  store i64 %47, ptr %50, align 8
  %51 = load i64, ptr %12, align 8
  store i64 %51, ptr %11, align 8
  br label %18, !llvm.loop !30

52:                                               ; preds = %35, %18
  %53 = load float, ptr %9, align 4
  %54 = load ptr, ptr %7, align 8
  %55 = load i64, ptr %11, align 8
  %56 = getelementptr inbounds float, ptr %54, i64 %55
  store float %53, ptr %56, align 4
  %57 = load i64, ptr %10, align 8
  %58 = load ptr, ptr %8, align 8
  %59 = load i64, ptr %11, align 8
  %60 = getelementptr inbounds i64, ptr %58, i64 %59
  store i64 %57, ptr %60, align 8
  ret void
}

; Function Attrs: mustprogress uwtable
define linkonce_odr void @_ZN5faiss12heap_heapifyINS_4CMinIflEEEEvmPNT_1TEPNS3_2TIEPKS4_PKS6_m(i64 noundef %0, ptr noundef %1, ptr noundef %2, ptr noundef %3, ptr noundef %4, i64 noundef %5) #1 comdat {
  %7 = alloca i64, align 8
  %8 = alloca ptr, align 8
  %9 = alloca ptr, align 8
  %10 = alloca ptr, align 8
  %11 = alloca ptr, align 8
  %12 = alloca i64, align 8
  %13 = alloca i64, align 8
  %14 = alloca i64, align 8
  %15 = alloca i64, align 8
  store i64 %0, ptr %7, align 8
  store ptr %1, ptr %8, align 8
  store ptr %2, ptr %9, align 8
  store ptr %3, ptr %10, align 8
  store ptr %4, ptr %11, align 8
  store i64 %5, ptr %12, align 8
  %16 = load i64, ptr %12, align 8
  %17 = icmp ugt i64 %16, 0
  br i1 %17, label %18, label %19

18:                                               ; preds = %6
  br label %19

19:                                               ; preds = %18, %6
  %20 = load ptr, ptr %11, align 8
  %21 = icmp ne ptr %20, null
  br i1 %21, label %22, label %44

22:                                               ; preds = %19
  store i64 0, ptr %13, align 8
  br label %23

23:                                               ; preds = %40, %22
  %24 = load i64, ptr %13, align 8
  %25 = load i64, ptr %12, align 8
  %26 = icmp ult i64 %24, %25
  br i1 %26, label %27, label %43

27:                                               ; preds = %23
  %28 = load i64, ptr %13, align 8
  %29 = add i64 %28, 1
  %30 = load ptr, ptr %8, align 8
  %31 = load ptr, ptr %9, align 8
  %32 = load ptr, ptr %10, align 8
  %33 = load i64, ptr %13, align 8
  %34 = getelementptr inbounds float, ptr %32, i64 %33
  %35 = load float, ptr %34, align 4
  %36 = load ptr, ptr %11, align 8
  %37 = load i64, ptr %13, align 8
  %38 = getelementptr inbounds i64, ptr %36, i64 %37
  %39 = load i64, ptr %38, align 8
  call void @_ZN5faiss9heap_pushINS_4CMinIflEEEEvmPNT_1TEPNS3_2TIES4_S6_(i64 noundef %29, ptr noundef %30, ptr noundef %31, float noundef %35, i64 noundef %39)
  br label %40

40:                                               ; preds = %27
  %41 = load i64, ptr %13, align 8
  %42 = add i64 %41, 1
  store i64 %42, ptr %13, align 8
  br label %23, !llvm.loop !23

43:                                               ; preds = %23
  br label %63

44:                                               ; preds = %19
  store i64 0, ptr %14, align 8
  br label %45

45:                                               ; preds = %59, %44
  %46 = load i64, ptr %14, align 8
  %47 = load i64, ptr %12, align 8
  %48 = icmp ult i64 %46, %47
  br i1 %48, label %49, label %62

49:                                               ; preds = %45
  %50 = load i64, ptr %14, align 8
  %51 = add i64 %50, 1
  %52 = load ptr, ptr %8, align 8
  %53 = load ptr, ptr %9, align 8
  %54 = load ptr, ptr %10, align 8
  %55 = load i64, ptr %14, align 8
  %56 = getelementptr inbounds float, ptr %54, i64 %55
  %57 = load float, ptr %56, align 4
  %58 = load i64, ptr %14, align 8
  call void @_ZN5faiss9heap_pushINS_4CMinIflEEEEvmPNT_1TEPNS3_2TIES4_S6_(i64 noundef %51, ptr noundef %52, ptr noundef %53, float noundef %57, i64 noundef %58)
  br label %59

59:                                               ; preds = %49
  %60 = load i64, ptr %14, align 8
  %61 = add i64 %60, 1
  store i64 %61, ptr %14, align 8
  br label %45, !llvm.loop !24

62:                                               ; preds = %45
  br label %63

63:                                               ; preds = %62, %43
  %64 = load i64, ptr %12, align 8
  store i64 %64, ptr %15, align 8
  br label %65

65:                                               ; preds = %77, %63
  %66 = load i64, ptr %15, align 8
  %67 = load i64, ptr %7, align 8
  %68 = icmp ult i64 %66, %67
  br i1 %68, label %69, label %80

69:                                               ; preds = %65
  %70 = call noundef float @_ZN5faiss4CMinIflE7neutralEv()
  %71 = load ptr, ptr %8, align 8
  %72 = load i64, ptr %15, align 8
  %73 = getelementptr inbounds float, ptr %71, i64 %72
  store float %70, ptr %73, align 4
  %74 = load ptr, ptr %9, align 8
  %75 = load i64, ptr %15, align 8
  %76 = getelementptr inbounds i64, ptr %74, i64 %75
  store i64 -1, ptr %76, align 8
  br label %77

77:                                               ; preds = %69
  %78 = load i64, ptr %15, align 8
  %79 = add i64 %78, 1
  store i64 %79, ptr %15, align 8
  br label %65, !llvm.loop !25

80:                                               ; preds = %65
  ret void
}

; Function Attrs: norecurse nounwind uwtable
define internal void @_ZN5faiss12_GLOBAL__N_115reorder_2_heapsINS_4CMinIflEEEEvllPlPflPKlPKf.omp_outlined(ptr noalias noundef %0, ptr noalias noundef %1, ptr noundef nonnull align 8 dereferenceable(8) %2, ptr noundef nonnull align 8 dereferenceable(8) %3, ptr noundef nonnull align 8 dereferenceable(8) %4, ptr noundef nonnull align 8 dereferenceable(8) %5, ptr noundef nonnull align 8 dereferenceable(8) %6, ptr noundef nonnull align 8 dereferenceable(8) %7, ptr noundef nonnull align 8 dereferenceable(8) %8) #7 personality ptr @__gxx_personality_v0 {
  %10 = alloca ptr, align 8
  %11 = alloca ptr, align 8
  %12 = alloca ptr, align 8
  %13 = alloca ptr, align 8
  %14 = alloca ptr, align 8
  %15 = alloca ptr, align 8
  %16 = alloca ptr, align 8
  %17 = alloca ptr, align 8
  %18 = alloca ptr, align 8
  %19 = alloca i64, align 8
  %20 = alloca i64, align 8
  %21 = alloca i64, align 8
  %22 = alloca i64, align 8
  %23 = alloca i64, align 8
  %24 = alloca i64, align 8
  %25 = alloca i64, align 8
  %26 = alloca i32, align 4
  %27 = alloca i64, align 8
  %28 = alloca ptr, align 8
  %29 = alloca ptr, align 8
  %30 = alloca ptr, align 8
  %31 = alloca ptr, align 8
  store ptr %0, ptr %10, align 8
  store ptr %1, ptr %11, align 8
  store ptr %2, ptr %12, align 8
  store ptr %3, ptr %13, align 8
  store ptr %4, ptr %14, align 8
  store ptr %5, ptr %15, align 8
  store ptr %6, ptr %16, align 8
  store ptr %7, ptr %17, align 8
  store ptr %8, ptr %18, align 8
  %32 = load ptr, ptr %12, align 8
  %33 = load ptr, ptr %13, align 8
  %34 = load ptr, ptr %14, align 8
  %35 = load ptr, ptr %15, align 8
  %36 = load ptr, ptr %16, align 8
  %37 = load ptr, ptr %17, align 8
  %38 = load ptr, ptr %18, align 8
  %39 = load i64, ptr %32, align 8
  store i64 %39, ptr %20, align 8
  %40 = load i64, ptr %20, align 8
  %41 = sub nsw i64 %40, 0
  %42 = sdiv i64 %41, 1
  %43 = sub nsw i64 %42, 1
  store i64 %43, ptr %21, align 8
  store i64 0, ptr %22, align 8
  %44 = load i64, ptr %20, align 8
  %45 = icmp slt i64 0, %44
  br i1 %45, label %46, label %126

46:                                               ; preds = %9
  store i64 0, ptr %23, align 8
  %47 = load i64, ptr %21, align 8
  store i64 %47, ptr %24, align 8
  store i64 1, ptr %25, align 8
  store i32 0, ptr %26, align 4
  %48 = load ptr, ptr %10, align 8
  %49 = load i32, ptr %48, align 4
  call void @__kmpc_for_static_init_8(ptr @1, i32 %49, i32 34, ptr %26, ptr %23, ptr %24, ptr %25, i64 1, i64 1)
  %50 = load i64, ptr %24, align 8
  %51 = load i64, ptr %21, align 8
  %52 = icmp sgt i64 %50, %51
  br i1 %52, label %53, label %55

53:                                               ; preds = %46
  %54 = load i64, ptr %21, align 8
  br label %57

55:                                               ; preds = %46
  %56 = load i64, ptr %24, align 8
  br label %57

57:                                               ; preds = %55, %53
  %58 = phi i64 [ %54, %53 ], [ %56, %55 ]
  store i64 %58, ptr %24, align 8
  %59 = load i64, ptr %23, align 8
  store i64 %59, ptr %19, align 8
  br label %60

60:                                               ; preds = %119, %57
  %61 = load i64, ptr %19, align 8
  %62 = load i64, ptr %24, align 8
  %63 = icmp sle i64 %61, %62
  br i1 %63, label %64, label %122

64:                                               ; preds = %60
  %65 = load i64, ptr %19, align 8
  %66 = mul nsw i64 %65, 1
  %67 = add nsw i64 0, %66
  store i64 %67, ptr %27, align 8
  %68 = load ptr, ptr %33, align 8
  %69 = load i64, ptr %27, align 8
  %70 = load i64, ptr %34, align 8
  %71 = mul nsw i64 %69, %70
  %72 = getelementptr inbounds i64, ptr %68, i64 %71
  store ptr %72, ptr %28, align 8
  %73 = load ptr, ptr %35, align 8
  %74 = load i64, ptr %27, align 8
  %75 = load i64, ptr %34, align 8
  %76 = mul nsw i64 %74, %75
  %77 = getelementptr inbounds float, ptr %73, i64 %76
  store ptr %77, ptr %29, align 8
  %78 = load ptr, ptr %36, align 8
  %79 = load i64, ptr %27, align 8
  %80 = load i64, ptr %37, align 8
  %81 = mul nsw i64 %79, %80
  %82 = getelementptr inbounds i64, ptr %78, i64 %81
  store ptr %82, ptr %30, align 8
  %83 = load ptr, ptr %38, align 8
  %84 = load i64, ptr %27, align 8
  %85 = load i64, ptr %37, align 8
  %86 = mul nsw i64 %84, %85
  %87 = getelementptr inbounds float, ptr %83, i64 %86
  store ptr %87, ptr %31, align 8
  %88 = load i64, ptr %34, align 8
  %89 = load ptr, ptr %29, align 8
  %90 = load ptr, ptr %28, align 8
  %91 = load ptr, ptr %31, align 8
  %92 = load ptr, ptr %30, align 8
  %93 = load i64, ptr %34, align 8
  invoke void @_ZN5faiss12heap_heapifyINS_4CMinIflEEEEvmPNT_1TEPNS3_2TIEPKS4_PKS6_m(i64 noundef %88, ptr noundef %89, ptr noundef %90, ptr noundef %91, ptr noundef %92, i64 noundef %93)
          to label %94 unwind label %127

94:                                               ; preds = %64
  %95 = load i64, ptr %37, align 8
  %96 = load i64, ptr %34, align 8
  %97 = icmp ne i64 %95, %96
  br i1 %97, label %98, label %112

98:                                               ; preds = %94
  %99 = load i64, ptr %34, align 8
  %100 = load ptr, ptr %29, align 8
  %101 = load ptr, ptr %28, align 8
  %102 = load ptr, ptr %31, align 8
  %103 = load i64, ptr %34, align 8
  %104 = getelementptr inbounds float, ptr %102, i64 %103
  %105 = load ptr, ptr %30, align 8
  %106 = load i64, ptr %34, align 8
  %107 = getelementptr inbounds i64, ptr %105, i64 %106
  %108 = load i64, ptr %37, align 8
  %109 = load i64, ptr %34, align 8
  %110 = sub nsw i64 %108, %109
  invoke void @_ZN5faiss9heap_addnINS_4CMinIflEEEEvmPNT_1TEPNS3_2TIEPKS4_PKS6_m(i64 noundef %99, ptr noundef %100, ptr noundef %101, ptr noundef %104, ptr noundef %107, i64 noundef %110)
          to label %111 unwind label %127

111:                                              ; preds = %98
  br label %112

112:                                              ; preds = %111, %94
  %113 = load i64, ptr %34, align 8
  %114 = load ptr, ptr %29, align 8
  %115 = load ptr, ptr %28, align 8
  %116 = invoke noundef i64 @_ZN5faiss12heap_reorderINS_4CMinIflEEEEmmPNT_1TEPNS3_2TIE(i64 noundef %113, ptr noundef %114, ptr noundef %115)
          to label %117 unwind label %127

117:                                              ; preds = %112
  br label %118

118:                                              ; preds = %117
  br label %119

119:                                              ; preds = %118
  %120 = load i64, ptr %19, align 8
  %121 = add nsw i64 %120, 1
  store i64 %121, ptr %19, align 8
  br label %60

122:                                              ; preds = %60
  br label %123

123:                                              ; preds = %122
  %124 = load ptr, ptr %10, align 8
  %125 = load i32, ptr %124, align 4
  call void @__kmpc_for_static_fini(ptr @1, i32 %125)
  br label %126

126:                                              ; preds = %123, %9
  ret void

127:                                              ; preds = %112, %98, %64
  %128 = landingpad { ptr, i32 }
          catch ptr null
  %129 = extractvalue { ptr, i32 } %128, 0
  call void @__clang_call_terminate(ptr %129) #18
  unreachable
}