; Function Attrs: norecurse nounwind uwtable
define internal void @_ZN5faiss12_GLOBAL__N_115reorder_2_heapsINS_4CMinIflEEEEvllPlPflPKlPKf.omp_outlined(ptr noalias nocapture noundef readonly %0, ptr noalias nocapture readnone %1, ptr nocapture noundef nonnull readonly align 8 dereferenceable(8) %2, ptr nocapture noundef nonnull readonly align 8 dereferenceable(8) %3, ptr nocapture noundef nonnull readonly align 8 dereferenceable(8) %4, ptr nocapture noundef nonnull readonly align 8 dereferenceable(8) %5, ptr nocapture noundef nonnull readonly align 8 dereferenceable(8) %6, ptr nocapture noundef nonnull readonly align 8 dereferenceable(8) %7, ptr nocapture noundef nonnull readonly align 8 dereferenceable(8) %8) #8 personality ptr @__gxx_personality_v0 {
  %10 = alloca i64, align 8
  %11 = alloca i64, align 8
  %12 = alloca i64, align 8
  %13 = alloca i32, align 4
  %14 = load i64, ptr %2, align 8
  %15 = icmp sgt i64 %14, 0
  br i1 %15, label %16, label %90

16:                                               ; preds = %9
  %17 = add nsw i64 %14, -1
  store i64 0, ptr %10, align 8
  store i64 %17, ptr %11, align 8
  store i64 1, ptr %12, align 8
  store i32 0, ptr %13, align 4
  %18 = load i32, ptr %0, align 4
  call void @__kmpc_for_static_init_8(ptr nonnull @1, i32 %18, i32 34, ptr nonnull %13, ptr nonnull %10, ptr nonnull %11, ptr nonnull %12, i64 1, i64 1)
  %19 = load i64, ptr %11, align 8
  %20 = call i64 @llvm.smin.i64(i64 %19, i64 %17)
  store i64 %20, ptr %11, align 8
  %21 = load i64, ptr %10, align 8
  %.not34 = icmp sgt i64 %21, %20
  br i1 %.not34, label %._crit_edge, label %.lr.ph

.lr.ph:                                           ; preds = %16, %87
  %.035 = phi i64 [ %88, %87 ], [ %21, %16 ]
  %22 = load ptr, ptr %3, align 8
  %23 = load i64, ptr %4, align 8
  %24 = mul nsw i64 %23, %.035
  %25 = getelementptr inbounds i64, ptr %22, i64 %24
  %26 = load ptr, ptr %5, align 8
  %27 = getelementptr inbounds float, ptr %26, i64 %24
  %28 = load ptr, ptr %6, align 8
  %29 = load i64, ptr %7, align 8
  %30 = mul nsw i64 %29, %.035
  %31 = getelementptr inbounds i64, ptr %28, i64 %30
  %32 = load ptr, ptr %8, align 8
  %33 = getelementptr inbounds float, ptr %32, i64 %30
  %.not.i = icmp eq ptr %28, null
  %.not48.i = icmp eq i64 %23, 0
  br i1 %.not.i, label %.preheader.i, label %.preheader39.i

.preheader39.i:                                   ; preds = %.lr.ph
  br i1 %.not48.i, label %_ZN5faiss12heap_heapifyINS_4CMinIflEEEEvmPNT_1TEPNS3_2TIEPKS4_PKS6_m.exit, label %.lr.ph.i

.lr.ph.i:                                         ; preds = %.preheader39.i
  %34 = getelementptr inbounds i8, ptr %27, i64 -4
  %35 = getelementptr inbounds i8, ptr %25, i64 -8
  br label %38

.preheader.i:                                     ; preds = %.lr.ph
  br i1 %.not48.i, label %_ZN5faiss12heap_heapifyINS_4CMinIflEEEEvmPNT_1TEPNS3_2TIEPKS4_PKS6_m.exit, label %.lr.ph44.i

.lr.ph44.i:                                       ; preds = %.preheader.i
  %36 = getelementptr inbounds i8, ptr %27, i64 -4
  %37 = getelementptr inbounds i8, ptr %25, i64 -8
  br label %59

38:                                               ; preds = %_ZN5faiss9heap_pushINS_4CMinIflEEEEvmPNT_1TEPNS3_2TIES4_S6_.exit.i, %.lr.ph.i
  %.02941.i = phi i64 [ 0, %.lr.ph.i ], [ %39, %_ZN5faiss9heap_pushINS_4CMinIflEEEEvmPNT_1TEPNS3_2TIES4_S6_.exit.i ]
  %39 = add nuw i64 %.02941.i, 1
  %40 = getelementptr inbounds float, ptr %33, i64 %.02941.i
  %41 = load float, ptr %40, align 4
  %42 = getelementptr inbounds i64, ptr %31, i64 %.02941.i
  %43 = load i64, ptr %42, align 8
  %.not37.i = icmp eq i64 %.02941.i, 0
  br i1 %.not37.i, label %_ZN5faiss9heap_pushINS_4CMinIflEEEEvmPNT_1TEPNS3_2TIES4_S6_.exit.i, label %.lr.ph.i.i

.lr.ph.i.i:                                       ; preds = %38, %_ZN5faiss4CMinIflE4cmp2Effll.exit.thread.i.i
  %.025.i.i = phi i64 [ %44, %_ZN5faiss4CMinIflE4cmp2Effll.exit.thread.i.i ], [ %39, %38 ]
  %44 = lshr i64 %.025.i.i, 1
  %45 = getelementptr inbounds float, ptr %34, i64 %44
  %46 = load float, ptr %45, align 4
  %47 = getelementptr inbounds i64, ptr %35, i64 %44
  %48 = fcmp ogt float %46, %41
  br i1 %48, label %_ZN5faiss4CMinIflE4cmp2Effll.exit.thread.i.i, label %_ZN5faiss4CMinIflE4cmp2Effll.exit.i.i

_ZN5faiss4CMinIflE4cmp2Effll.exit.i.i:            ; preds = %.lr.ph.i.i
  %49 = load i64, ptr %47, align 8
  %50 = fcmp oeq float %46, %41
  %51 = icmp sgt i64 %49, %43
  %52 = and i1 %50, %51
  br i1 %52, label %_ZN5faiss4CMinIflE4cmp2Effll.exit.thread.i.i, label %_ZN5faiss9heap_pushINS_4CMinIflEEEEvmPNT_1TEPNS3_2TIES4_S6_.exit.i

_ZN5faiss4CMinIflE4cmp2Effll.exit.thread.i.i:     ; preds = %_ZN5faiss4CMinIflE4cmp2Effll.exit.i.i, %.lr.ph.i.i
  %53 = getelementptr inbounds float, ptr %34, i64 %.025.i.i
  store float %46, ptr %53, align 4
  %54 = load i64, ptr %47, align 8
  %55 = getelementptr inbounds i64, ptr %35, i64 %.025.i.i
  store i64 %54, ptr %55, align 8
  %56 = icmp ugt i64 %.025.i.i, 3
  br i1 %56, label %.lr.ph.i.i, label %_ZN5faiss9heap_pushINS_4CMinIflEEEEvmPNT_1TEPNS3_2TIES4_S6_.exit.i, !llvm.loop !20

_ZN5faiss9heap_pushINS_4CMinIflEEEEvmPNT_1TEPNS3_2TIES4_S6_.exit.i: ; preds = %_ZN5faiss4CMinIflE4cmp2Effll.exit.thread.i.i, %_ZN5faiss4CMinIflE4cmp2Effll.exit.i.i, %38
  %.0.lcssa.i.i = phi i64 [ 1, %38 ], [ %.025.i.i, %_ZN5faiss4CMinIflE4cmp2Effll.exit.i.i ], [ %44, %_ZN5faiss4CMinIflE4cmp2Effll.exit.thread.i.i ]
  %57 = getelementptr inbounds float, ptr %34, i64 %.0.lcssa.i.i
  store float %41, ptr %57, align 4
  %58 = getelementptr inbounds i64, ptr %35, i64 %.0.lcssa.i.i
  store i64 %43, ptr %58, align 8
  %exitcond.not.i = icmp eq i64 %39, %23
  br i1 %exitcond.not.i, label %_ZN5faiss12heap_heapifyINS_4CMinIflEEEEvmPNT_1TEPNS3_2TIEPKS4_PKS6_m.exit, label %38, !llvm.loop !21

59:                                               ; preds = %_ZN5faiss9heap_pushINS_4CMinIflEEEEvmPNT_1TEPNS3_2TIES4_S6_.exit36.i, %.lr.ph44.i
  %.02842.i = phi i64 [ 0, %.lr.ph44.i ], [ %60, %_ZN5faiss9heap_pushINS_4CMinIflEEEEvmPNT_1TEPNS3_2TIES4_S6_.exit36.i ]
  %60 = add nuw i64 %.02842.i, 1
  %61 = getelementptr inbounds float, ptr %33, i64 %.02842.i
  %62 = load float, ptr %61, align 4
  %.not38.i = icmp eq i64 %.02842.i, 0
  br i1 %.not38.i, label %_ZN5faiss9heap_pushINS_4CMinIflEEEEvmPNT_1TEPNS3_2TIES4_S6_.exit36.i, label %.lr.ph.i32.i

.lr.ph.i32.i:                                     ; preds = %59, %_ZN5faiss4CMinIflE4cmp2Effll.exit.thread.i35.i
  %.025.i33.i = phi i64 [ %63, %_ZN5faiss4CMinIflE4cmp2Effll.exit.thread.i35.i ], [ %60, %59 ]
  %63 = lshr i64 %.025.i33.i, 1
  %64 = getelementptr inbounds float, ptr %36, i64 %63
  %65 = load float, ptr %64, align 4
  %66 = getelementptr inbounds i64, ptr %37, i64 %63
  %67 = fcmp ogt float %65, %62
  br i1 %67, label %_ZN5faiss4CMinIflE4cmp2Effll.exit.thread.i35.i, label %_ZN5faiss4CMinIflE4cmp2Effll.exit.i34.i

_ZN5faiss4CMinIflE4cmp2Effll.exit.i34.i:          ; preds = %.lr.ph.i32.i
  %68 = load i64, ptr %66, align 8
  %69 = fcmp oeq float %65, %62
  %70 = icmp sgt i64 %68, %.02842.i
  %71 = and i1 %69, %70
  br i1 %71, label %_ZN5faiss4CMinIflE4cmp2Effll.exit.thread.i35.i, label %_ZN5faiss9heap_pushINS_4CMinIflEEEEvmPNT_1TEPNS3_2TIES4_S6_.exit36.i

_ZN5faiss4CMinIflE4cmp2Effll.exit.thread.i35.i:   ; preds = %_ZN5faiss4CMinIflE4cmp2Effll.exit.i34.i, %.lr.ph.i32.i
  %72 = getelementptr inbounds float, ptr %36, i64 %.025.i33.i
  store float %65, ptr %72, align 4
  %73 = load i64, ptr %66, align 8
  %74 = getelementptr inbounds i64, ptr %37, i64 %.025.i33.i
  store i64 %73, ptr %74, align 8
  %75 = icmp ugt i64 %.025.i33.i, 3
  br i1 %75, label %.lr.ph.i32.i, label %_ZN5faiss9heap_pushINS_4CMinIflEEEEvmPNT_1TEPNS3_2TIES4_S6_.exit36.i, !llvm.loop !20

_ZN5faiss9heap_pushINS_4CMinIflEEEEvmPNT_1TEPNS3_2TIES4_S6_.exit36.i: ; preds = %_ZN5faiss4CMinIflE4cmp2Effll.exit.thread.i35.i, %_ZN5faiss4CMinIflE4cmp2Effll.exit.i34.i, %59
  %.0.lcssa.i31.i = phi i64 [ 1, %59 ], [ %.025.i33.i, %_ZN5faiss4CMinIflE4cmp2Effll.exit.i34.i ], [ %63, %_ZN5faiss4CMinIflE4cmp2Effll.exit.thread.i35.i ]
  %76 = getelementptr inbounds float, ptr %36, i64 %.0.lcssa.i31.i
  store float %62, ptr %76, align 4
  %77 = getelementptr inbounds i64, ptr %37, i64 %.0.lcssa.i31.i
  store i64 %.02842.i, ptr %77, align 8
  %exitcond50.not.i = icmp eq i64 %60, %23
  br i1 %exitcond50.not.i, label %_ZN5faiss12heap_heapifyINS_4CMinIflEEEEvmPNT_1TEPNS3_2TIEPKS4_PKS6_m.exit, label %59, !llvm.loop !22

_ZN5faiss12heap_heapifyINS_4CMinIflEEEEvmPNT_1TEPNS3_2TIEPKS4_PKS6_m.exit: ; preds = %_ZN5faiss9heap_pushINS_4CMinIflEEEEvmPNT_1TEPNS3_2TIES4_S6_.exit.i, %_ZN5faiss9heap_pushINS_4CMinIflEEEEvmPNT_1TEPNS3_2TIES4_S6_.exit36.i, %.preheader.i, %.preheader39.i
  %78 = load i64, ptr %7, align 8
  %79 = load i64, ptr %4, align 8
  %.not32 = icmp eq i64 %78, %79
  br i1 %.not32, label %84, label %80

80:                                               ; preds = %_ZN5faiss12heap_heapifyINS_4CMinIflEEEEvmPNT_1TEPNS3_2TIEPKS4_PKS6_m.exit
  %81 = getelementptr inbounds float, ptr %33, i64 %79
  %82 = getelementptr inbounds i64, ptr %31, i64 %79
  %83 = sub nsw i64 %78, %79
  invoke void @_ZN5faiss9heap_addnINS_4CMinIflEEEEvmPNT_1TEPNS3_2TIEPKS4_PKS6_m(i64 noundef %79, ptr noundef %27, ptr noundef %25, ptr noundef %81, ptr noundef %82, i64 noundef %83)
          to label %._crit_edge37 unwind label %91

._crit_edge37:                                    ; preds = %80
  %.pre = load i64, ptr %4, align 8
  br label %84

84:                                               ; preds = %._crit_edge37, %_ZN5faiss12heap_heapifyINS_4CMinIflEEEEvmPNT_1TEPNS3_2TIEPKS4_PKS6_m.exit
  %85 = phi i64 [ %.pre, %._crit_edge37 ], [ %78, %_ZN5faiss12heap_heapifyINS_4CMinIflEEEEvmPNT_1TEPNS3_2TIEPKS4_PKS6_m.exit ]
  %86 = invoke noundef i64 @_ZN5faiss12heap_reorderINS_4CMinIflEEEEmmPNT_1TEPNS3_2TIE(i64 noundef %85, ptr noundef %27, ptr noundef %25)
          to label %87 unwind label %91

87:                                               ; preds = %84
  %88 = add nsw i64 %.035, 1
  %89 = load i64, ptr %11, align 8
  %.not.not = icmp slt i64 %.035, %89
  br i1 %.not.not, label %.lr.ph, label %._crit_edge

._crit_edge:                                      ; preds = %87, %16
  call void @__kmpc_for_static_fini(ptr nonnull @1, i32 %18)
  br label %90

90:                                               ; preds = %._crit_edge, %9
  ret void

91:                                               ; preds = %84, %80
  %92 = landingpad { ptr, i32 }
          catch ptr null
  %93 = extractvalue { ptr, i32 } %92, 0
  call void @__clang_call_terminate(ptr %93) #22
  unreachable
}